; Function Attrs: nounwind uwtable
define dso_local void @cost_valuesscan(ptr noundef captures(none) initializes((40, 48)) %0, ptr noundef %1, ptr noundef readonly captures(none) %2, ptr noundef readonly captures(address_is_null) %3) local_unnamed_addr #2 {
  %5 = alloca %struct.cost_qual_eval_context, align 8
  %.not = icmp eq ptr %3, null
  %6 = getelementptr inbounds nuw i8, ptr %0, i64 40
  br i1 %.not, label %.split25, label %7

7:                                                ; preds = %4
  %8 = getelementptr inbounds nuw i8, ptr %3, i64 16
  %9 = load double, ptr %8, align 8
  store double %9, ptr %6, align 8
  %10 = load double, ptr @cpu_operator_cost, align 8
  %11 = getelementptr inbounds nuw i8, ptr %3, i64 24
  %12 = load ptr, ptr %11, align 8
  call void @llvm.lifetime.start.p0(i64 24, ptr nonnull %5) #17
  store ptr %1, ptr %5, align 8
  %13 = getelementptr inbounds nuw i8, ptr %5, i64 8
  %14 = getelementptr inbounds nuw i8, ptr %12, i64 4
  %.not.i.i = icmp eq ptr %12, null
  call void @llvm.memset.p0.i64(ptr noundef nonnull align 8 dereferenceable(16) %13, i8 0, i64 16, i1 false)
  br i1 %.not.i.i, label %get_restriction_qual_cost.exit, label %.lr.ph.i.i

.lr.ph.i.i:                                       ; preds = %7
  %15 = getelementptr inbounds nuw i8, ptr %12, i64 16
  %16 = load i32, ptr %14, align 4
  %17 = icmp sgt i32 %16, 0
  br i1 %17, label %.lr.ph16.i.i, label %get_restriction_qual_cost.exit

.lr.ph16.i.i:                                     ; preds = %.lr.ph.i.i, %.lr.ph16.i.i
  %indvars.iv.i.i = phi i64 [ %indvars.iv.next.i.i, %.lr.ph16.i.i ], [ 0, %.lr.ph.i.i ]
  %18 = load ptr, ptr %15, align 8
  %19 = getelementptr inbounds nuw %union.ListCell, ptr %18, i64 %indvars.iv.i.i
  %20 = load ptr, ptr %19, align 8
  %21 = call zeroext i1 @cost_qual_eval_walker(ptr noundef %20, ptr noundef nonnull %5)
  %indvars.iv.next.i.i = add nuw nsw i64 %indvars.iv.i.i, 1
  %22 = load i32, ptr %14, align 4
  %23 = sext i32 %22 to i64
  %24 = icmp slt i64 %indvars.iv.next.i.i, %23
  br i1 %24, label %.lr.ph16.i.i, label %get_restriction_qual_cost.exit.loopexit

get_restriction_qual_cost.exit.loopexit:          ; preds = %.lr.ph16.i.i
  %.sroa.0.0.copyload.pre = load double, ptr %13, align 8
  %.sroa.8.0..sroa_idx.phi.trans.insert = getelementptr inbounds nuw i8, ptr %5, i64 16
  %.sroa.8.0.copyload.pre = load double, ptr %.sroa.8.0..sroa_idx.phi.trans.insert, align 8
  %.pre.pre = load double, ptr %6, align 8
  br label %get_restriction_qual_cost.exit

get_restriction_qual_cost.exit:                   ; preds = %get_restriction_qual_cost.exit.loopexit, %7, %.lr.ph.i.i
  %.pre = phi double [ %.pre.pre, %get_restriction_qual_cost.exit.loopexit ], [ %9, %7 ], [ %9, %.lr.ph.i.i ]
  %.sroa.8.0.copyload = phi double [ %.sroa.8.0.copyload.pre, %get_restriction_qual_cost.exit.loopexit ], [ 0.000000e+00, %7 ], [ 0.000000e+00, %.lr.ph.i.i ]
  %.sroa.0.0.copyload = phi double [ %.sroa.0.0.copyload.pre, %get_restriction_qual_cost.exit.loopexit ], [ 0.000000e+00, %7 ], [ 0.000000e+00, %.lr.ph.i.i ]
  call void @llvm.lifetime.end.p0(i64 24, ptr nonnull %5) #17
  %25 = getelementptr inbounds nuw i8, ptr %2, i64 304
  %26 = load double, ptr %25, align 8
  %27 = fadd double %.sroa.0.0.copyload, %26
  %28 = getelementptr inbounds nuw i8, ptr %2, i64 312
  %29 = load double, ptr %28, align 8
  %30 = fadd double %.sroa.8.0.copyload, %29
  br label %35

.split25:                                         ; preds = %4
  %31 = getelementptr inbounds nuw i8, ptr %2, i64 16
  %32 = load double, ptr %31, align 8
  store double %32, ptr %6, align 8
  %33 = load double, ptr @cpu_operator_cost, align 8
  %34 = getelementptr inbounds nuw i8, ptr %2, i64 304
  %.sroa.0.0.copyload28 = load double, ptr %34, align 8
  %.sroa.8.0..sroa_idx31 = getelementptr inbounds nuw i8, ptr %2, i64 312
  %.sroa.8.0.copyload32 = load double, ptr %.sroa.8.0..sroa_idx31, align 8
  br label %35

35:                                               ; preds = %.split25, %get_restriction_qual_cost.exit
  %36 = phi double [ %32, %.split25 ], [ %.pre, %get_restriction_qual_cost.exit ]
  %.sroa.8.0 = phi double [ %.sroa.8.0.copyload32, %.split25 ], [ %30, %get_restriction_qual_cost.exit ]
  %.sroa.0.0 = phi double [ %.sroa.0.0.copyload28, %.split25 ], [ %27, %get_restriction_qual_cost.exit ]
  %37 = phi double [ %33, %.split25 ], [ %10, %get_restriction_qual_cost.exit ]
  %38 = fadd double %.sroa.0.0, 0.000000e+00
  %39 = load double, ptr @cpu_tuple_cost, align 8
  %40 = fadd double %.sroa.8.0, %39
  %41 = fadd double %37, %40
  %42 = getelementptr inbounds nuw i8, ptr %2, i64 200
  %43 = load double, ptr %42, align 8
  %44 = call double @llvm.fmuladd.f64(double %41, double %43, double 0.000000e+00)
  %45 = getelementptr inbounds nuw i8, ptr %0, i64 16
  %46 = load ptr, ptr %45, align 8
  %47 = getelementptr inbounds nuw i8, ptr %46, i64 24
  %48 = load double, ptr %47, align 8
  %49 = fadd double %38, %48
  %50 = getelementptr inbounds nuw i8, ptr %46, i64 32
  %51 = load double, ptr %50, align 8
  %52 = call double @llvm.fmuladd.f64(double %51, double %36, double %44)
  %53 = getelementptr inbounds nuw i8, ptr %0, i64 48
  store i32 0, ptr %53, align 8
  %54 = getelementptr inbounds nuw i8, ptr %0, i64 56
  store double %49, ptr %54, align 8
  %55 = fadd double %49, %52
  %56 = getelementptr inbounds nuw i8, ptr %0, i64 64
  store double %55, ptr %56, align 8
  ret void
}